; Function Attrs: mustprogress uwtable
define hidden void @_ZN7VocData15getClassObjectsERKNSt7__cxx1112basic_stringIcSt11char_traitsIcESaIcEEE14ObdDatasetTypeRSt6vectorI8ObdImageSaISA_EERS9_IS9_I9ObdObjectSaISE_EESaISG_EE(ptr noundef nonnull readonly align 8 captures(none) dereferenceable(365) %0, ptr noundef nonnull readonly align 8 captures(none) dereferenceable(32) %1, i32 noundef %2, ptr noundef nonnull align 8 dereferenceable(24) %3, ptr noundef nonnull align 1 %4) local_unnamed_addr #4 align 2 personality ptr @__gxx_personality_v0 {
  %6 = alloca %"class.std::vector.10", align 8
  %7 = alloca %"class.std::vector.15", align 8
  call void @llvm.lifetime.start.p0(i64 24, ptr nonnull %6) #32
  call void @llvm.memset.p0.i64(ptr noundef nonnull align 8 dereferenceable(24) %6, i8 0, i64 24, i1 false)
  call void @llvm.lifetime.start.p0(i64 24, ptr nonnull %7) #32
  call void @llvm.memset.p0.i64(ptr noundef nonnull align 8 dereferenceable(24) %7, i8 0, i64 24, i1 false)
  invoke void @_ZN7VocData15getClassObjectsERKNSt7__cxx1112basic_stringIcSt11char_traitsIcESaIcEEE14ObdDatasetTypeRSt6vectorI8ObdImageSaISA_EERS9_IS9_I9ObdObjectSaISE_EESaISG_EERS9_IS9_I13VocObjectDataSaISK_EESaISM_EERS9_I5VocGTSaISQ_EE(ptr noundef nonnull align 8 dereferenceable(365) %0, ptr noundef nonnull align 8 dereferenceable(32) %1, i32 noundef %2, ptr noundef nonnull align 8 dereferenceable(24) %3, ptr noundef nonnull align 1 %4, ptr noundef nonnull align 8 dereferenceable(24) %6, ptr noundef nonnull align 8 dereferenceable(24) %7)
          to label %8 unwind label %19

8:                                                ; preds = %5
  %9 = load ptr, ptr %7, align 8, !tbaa !64
  %.not.i.i.i = icmp eq ptr %9, null
  br i1 %.not.i.i.i, label %_ZNSt6vectorI5VocGTSaIS0_EED2Ev.exit, label %10

10:                                               ; preds = %8
  call void @_ZdlPv(ptr noundef nonnull %9) #33
  br label %_ZNSt6vectorI5VocGTSaIS0_EED2Ev.exit

_ZNSt6vectorI5VocGTSaIS0_EED2Ev.exit:             ; preds = %8, %10
  call void @llvm.lifetime.end.p0(i64 24, ptr nonnull %7) #32
  %11 = load ptr, ptr %6, align 8, !tbaa !66
  %12 = getelementptr inbounds nuw i8, ptr %6, i64 8
  %13 = load ptr, ptr %12, align 8, !tbaa !69
  %.not4.i.i.i.i = icmp eq ptr %11, %13
  br i1 %.not4.i.i.i.i, label %_ZSt8_DestroyIPSt6vectorI13VocObjectDataSaIS1_EES3_EvT_S5_RSaIT0_E.exit.i, label %.lr.ph.i.i.i.i

.lr.ph.i.i.i.i:                                   ; preds = %_ZNSt6vectorI5VocGTSaIS0_EED2Ev.exit, %_ZSt8_DestroyISt6vectorI13VocObjectDataSaIS1_EEEvPT_.exit.i.i.i.i
  %.05.i.i.i.i = phi ptr [ %16, %_ZSt8_DestroyISt6vectorI13VocObjectDataSaIS1_EEEvPT_.exit.i.i.i.i ], [ %11, %_ZNSt6vectorI5VocGTSaIS0_EED2Ev.exit ]
  %14 = load ptr, ptr %.05.i.i.i.i, align 8, !tbaa !70
  %.not.i.i.i.i.i.i.i.i = icmp eq ptr %14, null
  br i1 %.not.i.i.i.i.i.i.i.i, label %_ZSt8_DestroyISt6vectorI13VocObjectDataSaIS1_EEEvPT_.exit.i.i.i.i, label %15

15:                                               ; preds = %.lr.ph.i.i.i.i
  call void @_ZdlPv(ptr noundef nonnull %14) #33
  br label %_ZSt8_DestroyISt6vectorI13VocObjectDataSaIS1_EEEvPT_.exit.i.i.i.i

_ZSt8_DestroyISt6vectorI13VocObjectDataSaIS1_EEEvPT_.exit.i.i.i.i: ; preds = %15, %.lr.ph.i.i.i.i
  %16 = getelementptr inbounds nuw i8, ptr %.05.i.i.i.i, i64 24
  %.not.i.i.i.i = icmp eq ptr %16, %13
  br i1 %.not.i.i.i.i, label %_ZSt8_DestroyIPSt6vectorI13VocObjectDataSaIS1_EES3_EvT_S5_RSaIT0_E.exitthread-pre-split.i, label %.lr.ph.i.i.i.i, !llvm.loop !73

_ZSt8_DestroyIPSt6vectorI13VocObjectDataSaIS1_EES3_EvT_S5_RSaIT0_E.exitthread-pre-split.i: ; preds = %_ZSt8_DestroyISt6vectorI13VocObjectDataSaIS1_EEEvPT_.exit.i.i.i.i
  %.pr.i = load ptr, ptr %6, align 8, !tbaa !66
  br label %_ZSt8_DestroyIPSt6vectorI13VocObjectDataSaIS1_EES3_EvT_S5_RSaIT0_E.exit.i

_ZSt8_DestroyIPSt6vectorI13VocObjectDataSaIS1_EES3_EvT_S5_RSaIT0_E.exit.i: ; preds = %_ZSt8_DestroyIPSt6vectorI13VocObjectDataSaIS1_EES3_EvT_S5_RSaIT0_E.exitthread-pre-split.i, %_ZNSt6vectorI5VocGTSaIS0_EED2Ev.exit
  %17 = phi ptr [ %.pr.i, %_ZSt8_DestroyIPSt6vectorI13VocObjectDataSaIS1_EES3_EvT_S5_RSaIT0_E.exitthread-pre-split.i ], [ %11, %_ZNSt6vectorI5VocGTSaIS0_EED2Ev.exit ]
  %.not.i.i.i6 = icmp eq ptr %17, null
  br i1 %.not.i.i.i6, label %_ZNSt6vectorIS_I13VocObjectDataSaIS0_EESaIS2_EED2Ev.exit, label %18

18:                                               ; preds = %_ZSt8_DestroyIPSt6vectorI13VocObjectDataSaIS1_EES3_EvT_S5_RSaIT0_E.exit.i
  call void @_ZdlPv(ptr noundef nonnull %17) #33
  br label %_ZNSt6vectorIS_I13VocObjectDataSaIS0_EESaIS2_EED2Ev.exit

_ZNSt6vectorIS_I13VocObjectDataSaIS0_EESaIS2_EED2Ev.exit: ; preds = %_ZSt8_DestroyIPSt6vectorI13VocObjectDataSaIS1_EES3_EvT_S5_RSaIT0_E.exit.i, %18
  call void @llvm.lifetime.end.p0(i64 24, ptr nonnull %6) #32
  ret void

19:                                               ; preds = %5
  %20 = landingpad { ptr, i32 }
          cleanup
  %21 = load ptr, ptr %7, align 8, !tbaa !64
  %.not.i.i.i7 = icmp eq ptr %21, null
  br i1 %.not.i.i.i7, label %_ZNSt6vectorI5VocGTSaIS0_EED2Ev.exit8, label %22

22:                                               ; preds = %19
  call void @_ZdlPv(ptr noundef nonnull %21) #33
  br label %_ZNSt6vectorI5VocGTSaIS0_EED2Ev.exit8

_ZNSt6vectorI5VocGTSaIS0_EED2Ev.exit8:            ; preds = %19, %22
  call void @llvm.lifetime.end.p0(i64 24, ptr nonnull %7) #32
  call void @_ZNSt6vectorIS_I13VocObjectDataSaIS0_EESaIS2_EED2Ev(ptr noundef nonnull align 8 dereferenceable(24) %6) #32
  call void @llvm.lifetime.end.p0(i64 24, ptr nonnull %6) #32
  resume { ptr, i32 } %20
}